#include <math.h>
#include <stdio.h>
#include <stdlib.h>
#include <string.h>


void main()
{
	int m = 0;
	int n;

	scanf("%d", &n);
	int a[5];
	int i = 0;
	while(n>=1)
	{
		a[i] = n%10;
		n = (int)(n/10);
		i++;
	}
	int k = 0 ; 
	int j = 0 ;
	for(j = i; j >0; j--, k ++)
	{
		m = 10*m + a[k];
	}
	printf("%d", m);
}
